target datalayout = "e-m:e-p270:32:32-p271:32:32-p272:64:64-i64:64-i128:128-f80:128-n8:16:32:64-S128"
target triple = "x86_64-unknown-linux-gnu"

; Function Attrs: mustprogress nounwind uwtable
define noundef double @_ZNK8QuantLib2G21BEdd(ptr noundef nonnull align 8 dereferenceable(200) %this, double noundef %x, double noundef %t) #2 align 2 {
entry:
  %this.addr = alloca ptr, align 8
  %x.addr = alloca double, align 8
  %t.addr = alloca double, align 8
  store ptr %this, ptr %this.addr, align 8, !tbaa !3
  store double %x, ptr %x.addr, align 8, !tbaa !16
  store double %t, ptr %t.addr, align 8, !tbaa !16
  %0 = load double, ptr %x.addr, align 8, !tbaa !16
  %fneg = fneg double %0
  %1 = load double, ptr %t.addr, align 8, !tbaa !16
  %mul = fmul double %fneg, %1
  %call = call double @exp(double noundef %mul) #15, !tbaa !57
  %sub = fsub double 1.000000e+00, %call
  %2 = load double, ptr %x.addr, align 8, !tbaa !16
  %div = fdiv double %sub, %2
  ret double %div
}