; Function Attrs: mustprogress nofree nounwind willreturn memory(write) uwtable
define noundef double @_ZNK8QuantLib2G21BEdd(ptr nocapture noundef nonnull readnone align 8 dereferenceable(200) %this, double noundef %x, double noundef %t) local_unnamed_addr #14 align 2 {
entry:
  %fneg = fneg double %x
  %mul = fmul double %t, %fneg
  %call = tail call double @exp(double noundef %mul) #27, !tbaa !115
  %sub = fsub double 1.000000e+00, %call
  %div = fdiv double %sub, %x
  ret double %div
}